target datalayout = "e-m:e-p270:32:32-p271:32:32-p272:64:64-i64:64-i128:128-f80:128-n8:16:32:64-S128"
target triple = "x86_64-pc-linux-gnu"

%"class.duckdb_fmt::v6::internal::fp" = type <{ i64, i32, [4 x i8] }>

; Function Attrs: mustprogress nounwind uwtable
define linkonce_odr void @_ZN10duckdb_fmt2v68internal2fpC2Emi(ptr noundef nonnull align 8 dereferenceable(12) %0, i64 noundef %1, i32 noundef %2) unnamed_addr #0 comdat align 2 {
  %4 = alloca ptr, align 8
  %5 = alloca i64, align 8
  %6 = alloca i32, align 4
  store ptr %0, ptr %4, align 8, !tbaa !54
  store i64 %1, ptr %5, align 8, !tbaa !10
  store i32 %2, ptr %6, align 4, !tbaa !3
  %7 = load ptr, ptr %4, align 8
  %8 = getelementptr inbounds nuw %"class.duckdb_fmt::v6::internal::fp", ptr %7, i32 0, i32 0
  %9 = load i64, ptr %5, align 8, !tbaa !10
  store i64 %9, ptr %8, align 8, !tbaa !56
  %10 = getelementptr inbounds nuw %"class.duckdb_fmt::v6::internal::fp", ptr %7, i32 0, i32 1
  %11 = load i32, ptr %6, align 4, !tbaa !3
  store i32 %11, ptr %10, align 8, !tbaa !58
  ret void
}

; Function Attrs: mustprogress uwtable
define { i64, i32 } @_ZN10duckdb_fmt2v68internal16get_cached_powerEiRi(i32 noundef %0, ptr noundef nonnull align 4 dereferenceable(4) %1) #3 {
  %3 = alloca %"class.duckdb_fmt::v6::internal::fp", align 8
  %4 = alloca i32, align 4
  %5 = alloca ptr, align 8
  %6 = alloca i64, align 8
  %7 = alloca i32, align 4
  %8 = alloca i32, align 4
  %9 = alloca i32, align 4
  store i32 %0, ptr %4, align 4, !tbaa !3
  store ptr %1, ptr %5, align 8, !tbaa !50
  call void @llvm.lifetime.start.p0(i64 8, ptr %6) #20
  store i64 1292913986, ptr %6, align 8, !tbaa !10
  call void @llvm.lifetime.start.p0(i64 4, ptr %7) #20
  %10 = load i32, ptr %4, align 4, !tbaa !3
  %11 = add nsw i32 %10, 64
  %12 = sub nsw i32 %11, 1
  %13 = sext i32 %12 to i64
  %14 = mul i64 %13, 1292913986
  %15 = add i64 %14, 4294967295
  %16 = ashr i64 %15, 32
  %17 = trunc i64 %16 to i32
  store i32 %17, ptr %7, align 4, !tbaa !3
  call void @llvm.lifetime.start.p0(i64 4, ptr %8) #20
  store i32 -348, ptr %8, align 4, !tbaa !3
  call void @llvm.lifetime.start.p0(i64 4, ptr %9) #20
  store i32 8, ptr %9, align 4, !tbaa !3
  %18 = load i32, ptr %7, align 4, !tbaa !3
  %19 = sub nsw i32 %18, -348
  %20 = sub nsw i32 %19, 1
  %21 = sdiv i32 %20, 8
  %22 = add nsw i32 %21, 1
  store i32 %22, ptr %7, align 4, !tbaa !3
  %23 = load i32, ptr %7, align 4, !tbaa !3
  %24 = mul nsw i32 %23, 8
  %25 = add nsw i32 -348, %24
  %26 = load ptr, ptr %5, align 8, !tbaa !50
  store i32 %25, ptr %26, align 4, !tbaa !3
  %27 = load i32, ptr %7, align 4, !tbaa !3
  %28 = sext i32 %27 to i64
  %29 = getelementptr inbounds [0 x i64], ptr @_ZN10duckdb_fmt2v68internal10basic_dataIvE18pow10_significandsE, i64 0, i64 %28
  %30 = load i64, ptr %29, align 8, !tbaa !10
  %31 = load i32, ptr %7, align 4, !tbaa !3
  %32 = sext i32 %31 to i64
  %33 = getelementptr inbounds [0 x i16], ptr @_ZN10duckdb_fmt2v68internal10basic_dataIvE15pow10_exponentsE, i64 0, i64 %32
  %34 = load i16, ptr %33, align 2, !tbaa !52
  %35 = sext i16 %34 to i32
  call void @_ZN10duckdb_fmt2v68internal2fpC2Emi(ptr noundef nonnull align 8 dereferenceable(12) %3, i64 noundef %30, i32 noundef %35)
  call void @llvm.lifetime.end.p0(i64 4, ptr %9) #20
  call void @llvm.lifetime.end.p0(i64 4, ptr %8) #20
  call void @llvm.lifetime.end.p0(i64 4, ptr %7) #20
  call void @llvm.lifetime.end.p0(i64 8, ptr %6) #20
  %36 = load { i64, i32 }, ptr %3, align 8
  ret { i64, i32 } %36
}