; Function Attrs: mustprogress nofree norecurse nosync nounwind willreturn memory(argmem: write) uwtable
define { i64, i32 } @_ZN10duckdb_fmt2v68internal16get_cached_powerEiRi(i32 noundef %0, ptr noundef nonnull writeonly align 4 captures(none) dereferenceable(4) initializes((0, 4)) %1) local_unnamed_addr #6 {
  %3 = add nsw i32 %0, 63
  %4 = sext i32 %3 to i64
  %5 = mul nsw i64 %4, 1292913986
  %6 = add nsw i64 %5, 4294967295
  %7 = lshr i64 %6, 32
  %8 = trunc nuw i64 %7 to i32
  %9 = add nsw i32 %8, 347
  %10 = sdiv i32 %9, 8
  %11 = add nsw i32 %10, 1
  %12 = shl nsw i32 %11, 3
  %13 = add nsw i32 %12, -348
  store i32 %13, ptr %1, align 4, !tbaa !11
  %14 = sext i32 %11 to i64
  %15 = getelementptr inbounds [0 x i64], ptr @_ZN10duckdb_fmt2v68internal10basic_dataIvE18pow10_significandsE, i64 0, i64 %14
  %16 = load i64, ptr %15, align 8, !tbaa !23
  %17 = getelementptr inbounds [0 x i16], ptr @_ZN10duckdb_fmt2v68internal10basic_dataIvE15pow10_exponentsE, i64 0, i64 %14
  %18 = load i16, ptr %17, align 2, !tbaa !24
  %19 = sext i16 %18 to i32
  %.fca.0.insert = insertvalue { i64, i32 } poison, i64 %16, 0
  %.fca.1.insert = insertvalue { i64, i32 } %.fca.0.insert, i32 %19, 1
  ret { i64, i32 } %.fca.1.insert
}